target datalayout = "e-m:e-p270:32:32-p271:32:32-p272:64:64-i64:64-i128:128-f80:128-n8:16:32:64-S128"
target triple = "x86_64-pc-linux-gnu"

%class.QString = type { %struct.QArrayDataPointer }
%struct.QArrayDataPointer = type { ptr, ptr, i64 }
%class.QWidget = type { %class.QObject, %class.QPaintDevice.base, ptr }
%class.QObject = type { ptr, %class.QScopedPointer }
%class.QScopedPointer = type { ptr }
%class.QPaintDevice.base = type <{ ptr, i16 }>
%class.QFrame = type { %class.QWidget }
%class.MainWindow = type { %class.QMainWindow, %class.CaptureFile, %class.QList.2, ptr, ptr, %class.QSplitter, %class.QSplitter, %class.QWidget, %class.QList.6, ptr, ptr, ptr, ptr, ptr, ptr, ptr, i8, %class.QList.10 }
%class.QMainWindow = type { %class.QWidget }
%class.CaptureFile = type { %class.QObject, ptr, %class.QString }
%class.QList.2 = type { %struct.QArrayDataPointer.5 }
%struct.QArrayDataPointer.5 = type { ptr, ptr, i64 }
%class.QSplitter = type { %class.QFrame }
%class.QList.6 = type { %struct.QArrayDataPointer.9 }
%struct.QArrayDataPointer.9 = type { ptr, ptr, i64 }
%class.QList.10 = type { %struct.QArrayDataPointer.13 }
%struct.QArrayDataPointer.13 = type { ptr, ptr, i64 }
%class.QAtomicInt = type { %class.QAtomicInteger }
%class.QAtomicInteger = type { %class.QBasicAtomicInteger }
%class.QBasicAtomicInteger = type { %"struct.std::atomic" }
%"struct.std::atomic" = type { %"struct.std::__atomic_base" }
%"struct.std::__atomic_base" = type { i32 }
%class.anon.224 = type { ptr }
%"class.QtPrivate::QSlotObjectBase" = type { %class.QAtomicInt, ptr }
%"struct.QtPrivate::ApplyReturnValue" = type { ptr }
%"class.QtPrivate::QFunctorSlotObject.673" = type { %"class.QtPrivate::QSlotObjectBase", %class.anon.224 }

; Function Attrs: mustprogress nounwind null_pointer_is_valid sspstrong uwtable
define linkonce_odr void @_ZN9QtPrivate16ApplyReturnValueIvEC2EPv(ptr noundef align 8 dereferenceable_or_null(8) %0, ptr noundef %1) unnamed_addr #7 comdat align 2 {
  %3 = alloca ptr, align 8
  %4 = alloca ptr, align 8
  store ptr %0, ptr %3, align 8
  store ptr %1, ptr %4, align 8
  %5 = load ptr, ptr %3, align 8
  %6 = getelementptr inbounds nuw %"struct.QtPrivate::ApplyReturnValue", ptr %5, i32 0, i32 0
  %7 = load ptr, ptr %4, align 8
  store ptr %7, ptr %6, align 8
  ret void
}

; Function Attrs: inlinehint mustprogress null_pointer_is_valid sspstrong uwtable
define internal void @"_ZZN19WiresharkMainWindow21statCommandExpertInfoEPKcPvENK3$_0clEi"(ptr noundef align 8 dereferenceable_or_null(8) %0, i32 noundef %1) #2 align 2 {
  %3 = alloca ptr, align 8
  %4 = alloca i32, align 4
  store ptr %0, ptr %3, align 8
  store i32 %1, ptr %4, align 4
  %5 = load ptr, ptr %3, align 8
  %6 = getelementptr inbounds nuw %class.anon.224, ptr %5, i32 0, i32 0
  %7 = load ptr, ptr %6, align 8
  %8 = getelementptr inbounds nuw %class.MainWindow, ptr %7, i32 0, i32 9
  %9 = load ptr, ptr %8, align 8
  %10 = load i32, ptr %4, align 4
  call void @_ZN10PacketList10goToPacketEii(ptr noundef align 8 dereferenceable_or_null(432) %9, i32 noundef %10, i32 noundef -1)
  ret void
}

; Function Attrs: mustprogress null_pointer_is_valid sspstrong uwtable
define internal void @"_ZN9QtPrivate11FunctorCallINS_11IndexesListIJLi0EEEENS_4ListIJiEEEvZN19WiresharkMainWindow21statCommandExpertInfoEPKcPvE3$_0E4callERS9_PS8_"(ptr noundef align 8 dereferenceable(8) %0, ptr noundef %1) #0 align 2 {
  %3 = alloca ptr, align 8
  %4 = alloca ptr, align 8
  %5 = alloca %"struct.QtPrivate::ApplyReturnValue", align 8
  store ptr %0, ptr %3, align 8
  store ptr %1, ptr %4, align 8
  %6 = load ptr, ptr %3, align 8
  %7 = load ptr, ptr %4, align 8
  %8 = getelementptr ptr, ptr %7, i64 1
  %9 = load ptr, ptr %8, align 8
  %10 = load i32, ptr %9, align 4
  call void @"_ZZN19WiresharkMainWindow21statCommandExpertInfoEPKcPvENK3$_0clEi"(ptr noundef align 8 dereferenceable_or_null(8) %6, i32 noundef %10)
  %11 = load ptr, ptr %4, align 8
  %12 = getelementptr ptr, ptr %11, i64 0
  %13 = load ptr, ptr %12, align 8
  call void @_ZN9QtPrivate16ApplyReturnValueIvEC2EPv(ptr noundef align 8 dereferenceable_or_null(8) %5, ptr noundef %13)
  ret void
}

; Function Attrs: mustprogress null_pointer_is_valid sspstrong uwtable
define internal void @"_ZN9QtPrivate7FunctorIZN19WiresharkMainWindow21statCommandExpertInfoEPKcPvE3$_0Li1EE4callINS_4ListIJiEEEvEEvRS5_S4_PS4_"(ptr noundef align 8 dereferenceable(8) %0, ptr noundef %1, ptr noundef %2) #0 align 2 {
  %4 = alloca ptr, align 8
  %5 = alloca ptr, align 8
  %6 = alloca ptr, align 8
  store ptr %0, ptr %4, align 8
  store ptr %1, ptr %5, align 8
  store ptr %2, ptr %6, align 8
  %7 = load ptr, ptr %4, align 8
  %8 = load ptr, ptr %6, align 8
  call void @"_ZN9QtPrivate11FunctorCallINS_11IndexesListIJLi0EEEENS_4ListIJiEEEvZN19WiresharkMainWindow21statCommandExpertInfoEPKcPvE3$_0E4callERS9_PS8_"(ptr noundef align 8 dereferenceable(8) %7, ptr noundef %8)
  ret void
}

; Function Attrs: mustprogress nounwind null_pointer_is_valid sspstrong uwtable
define linkonce_odr void @_ZN9QtPrivate15QSlotObjectBaseD2Ev(ptr noundef align 8 dereferenceable_or_null(16) %0) unnamed_addr #7 comdat align 2 {
  %2 = alloca ptr, align 8
  store ptr %0, ptr %2, align 8
  ret void
}

; Function Attrs: mustprogress null_pointer_is_valid sspstrong uwtable
define internal void @"_ZN9QtPrivate18QFunctorSlotObjectIZN19WiresharkMainWindow21statCommandExpertInfoEPKcPvE3$_0Li1ENS_4ListIJiEEEvE4implEiPNS_15QSlotObjectBaseEP7QObjectPS4_Pb"(i32 noundef %0, ptr noundef %1, ptr noundef %2, ptr noundef %3, ptr noundef %4) #0 align 2 {
  %6 = alloca i32, align 4
  %7 = alloca ptr, align 8
  %8 = alloca ptr, align 8
  %9 = alloca ptr, align 8
  %10 = alloca ptr, align 8
  store i32 %0, ptr %6, align 4
  store ptr %1, ptr %7, align 8
  store ptr %2, ptr %8, align 8
  store ptr %3, ptr %9, align 8
  store ptr %4, ptr %10, align 8
  %11 = load i32, ptr %6, align 4
  switch i32 %11, label %23 [
    i32 0, label %12
    i32 1, label %17
    i32 2, label %22
    i32 3, label %22
  ]

12:                                               ; preds = %5
  %13 = load ptr, ptr %7, align 8
  %14 = icmp eq ptr %13, null
  br i1 %14, label %16, label %15

15:                                               ; preds = %12
  call void @_ZN9QtPrivate15QSlotObjectBaseD2Ev(ptr noundef align 8 dereferenceable_or_null(24) %13) #24
  call void @_ZdlPvm(ptr noundef %13, i64 noundef 24) #27
  br label %16

16:                                               ; preds = %15, %12
  br label %23

17:                                               ; preds = %5
  %18 = load ptr, ptr %7, align 8
  %19 = getelementptr inbounds nuw %"class.QtPrivate::QFunctorSlotObject.673", ptr %18, i32 0, i32 1
  %20 = load ptr, ptr %8, align 8
  %21 = load ptr, ptr %9, align 8
  call void @"_ZN9QtPrivate7FunctorIZN19WiresharkMainWindow21statCommandExpertInfoEPKcPvE3$_0Li1EE4callINS_4ListIJiEEEvEEvRS5_S4_PS4_"(ptr noundef align 8 dereferenceable(8) %19, ptr noundef %20, ptr noundef %21)
  br label %23

22:                                               ; preds = %5, %5
  br label %23

23:                                               ; preds = %22, %5, %17, %16
  ret void
}